target datalayout = "e-m:e-p270:32:32-p271:32:32-p272:64:64-i64:64-i128:128-f80:128-n8:16:32:64-S128"
target triple = "x86_64-pc-linux-gnu"

%struct.archive_read = type { %struct.archive, ptr, i32, i64, i64, %struct.archive_read_client, [16 x %struct.archive_read_filter_bidder], ptr, i32, i64, i32, i32, [16 x %struct.archive_format_descriptor], ptr, ptr, ptr, %struct.anon }
%struct.archive = type { i32, i32, ptr, i32, ptr, i32, i32, ptr, %struct.archive_string, ptr, i32, i32, ptr, ptr, i64, i64, i64, i8, i64 }
%struct.archive_string = type { ptr, i64, i64 }
%struct.archive_read_client = type { ptr, ptr, ptr, ptr, ptr, ptr, i32, i32, i64, ptr }
%struct.archive_read_filter_bidder = type { ptr, ptr, ptr }
%struct.archive_format_descriptor = type { ptr, ptr, ptr, ptr, ptr, ptr, ptr, ptr, ptr, ptr, ptr }
%struct.anon = type { ptr, ptr, i32, ptr, ptr }
%struct.archive_read_filter = type { i64, ptr, ptr, ptr, ptr, ptr, ptr, i32, i32, i32, ptr, i64, ptr, i64, ptr, i64, ptr, i64, i8, i8, i8 }

; Function Attrs: nounwind uwtable
define internal ptr @get_filter(ptr noundef %0, i32 noundef %1) #0 {
  %3 = alloca ptr, align 8
  %4 = alloca ptr, align 8
  %5 = alloca i32, align 4
  %6 = alloca ptr, align 8
  %7 = alloca ptr, align 8
  %8 = alloca ptr, align 8
  %9 = alloca i32, align 4
  store ptr %0, ptr %4, align 8, !tbaa !31
  store i32 %1, ptr %5, align 4, !tbaa !38
  call void @llvm.lifetime.start.p0(i64 8, ptr %6) #11
  %10 = load ptr, ptr %4, align 8, !tbaa !31
  store ptr %10, ptr %6, align 8, !tbaa !4
  call void @llvm.lifetime.start.p0(i64 8, ptr %7) #11
  %11 = load ptr, ptr %6, align 8, !tbaa !4
  %12 = getelementptr inbounds nuw %struct.archive_read, ptr %11, i32 0, i32 7
  %13 = load ptr, ptr %12, align 8, !tbaa !59
  store ptr %13, ptr %7, align 8, !tbaa !45
  %14 = load i32, ptr %5, align 4, !tbaa !38
  %15 = icmp eq i32 %14, -1
  br i1 %15, label %16, label %34

16:                                               ; preds = %2
  %17 = load ptr, ptr %7, align 8, !tbaa !45
  %18 = icmp ne ptr %17, null
  br i1 %18, label %19, label %34

19:                                               ; preds = %16
  call void @llvm.lifetime.start.p0(i64 8, ptr %8) #11
  %20 = load ptr, ptr %7, align 8, !tbaa !45
  store ptr %20, ptr %8, align 8, !tbaa !45
  %21 = load ptr, ptr %7, align 8, !tbaa !45
  %22 = getelementptr inbounds nuw %struct.archive_read_filter, ptr %21, i32 0, i32 2
  %23 = load ptr, ptr %22, align 8, !tbaa !50
  store ptr %23, ptr %7, align 8, !tbaa !45
  br label %24

24:                                               ; preds = %27, %19
  %25 = load ptr, ptr %7, align 8, !tbaa !45
  %26 = icmp ne ptr %25, null
  br i1 %26, label %27, label %32

27:                                               ; preds = %24
  %28 = load ptr, ptr %7, align 8, !tbaa !45
  store ptr %28, ptr %8, align 8, !tbaa !45
  %29 = load ptr, ptr %7, align 8, !tbaa !45
  %30 = getelementptr inbounds nuw %struct.archive_read_filter, ptr %29, i32 0, i32 2
  %31 = load ptr, ptr %30, align 8, !tbaa !50
  store ptr %31, ptr %7, align 8, !tbaa !45
  br label %24, !llvm.loop !150

32:                                               ; preds = %24
  %33 = load ptr, ptr %8, align 8, !tbaa !45
  store ptr %33, ptr %3, align 8
  store i32 1, ptr %9, align 4
  call void @llvm.lifetime.end.p0(i64 8, ptr %8) #11
  br label %55

34:                                               ; preds = %16, %2
  %35 = load i32, ptr %5, align 4, !tbaa !38
  %36 = icmp slt i32 %35, 0
  br i1 %36, label %37, label %38

37:                                               ; preds = %34
  store ptr null, ptr %3, align 8
  store i32 1, ptr %9, align 4
  br label %55

38:                                               ; preds = %34
  br label %39

39:                                               ; preds = %47, %38
  %40 = load i32, ptr %5, align 4, !tbaa !38
  %41 = icmp sgt i32 %40, 0
  br i1 %41, label %42, label %45

42:                                               ; preds = %39
  %43 = load ptr, ptr %7, align 8, !tbaa !45
  %44 = icmp ne ptr %43, null
  br label %45

45:                                               ; preds = %42, %39
  %46 = phi i1 [ false, %39 ], [ %44, %42 ]
  br i1 %46, label %47, label %53

47:                                               ; preds = %45
  %48 = load ptr, ptr %7, align 8, !tbaa !45
  %49 = getelementptr inbounds nuw %struct.archive_read_filter, ptr %48, i32 0, i32 2
  %50 = load ptr, ptr %49, align 8, !tbaa !50
  store ptr %50, ptr %7, align 8, !tbaa !45
  %51 = load i32, ptr %5, align 4, !tbaa !38
  %52 = add nsw i32 %51, -1
  store i32 %52, ptr %5, align 4, !tbaa !38
  br label %39, !llvm.loop !151

53:                                               ; preds = %45
  %54 = load ptr, ptr %7, align 8, !tbaa !45
  store ptr %54, ptr %3, align 8
  store i32 1, ptr %9, align 4
  br label %55

55:                                               ; preds = %53, %37, %32
  call void @llvm.lifetime.end.p0(i64 8, ptr %7) #11
  call void @llvm.lifetime.end.p0(i64 8, ptr %6) #11
  %56 = load ptr, ptr %3, align 8
  ret ptr %56
}

; Function Attrs: nounwind uwtable
define internal i64 @_archive_filter_bytes(ptr noundef %0, i32 noundef %1) #0 {
  %3 = alloca ptr, align 8
  %4 = alloca i32, align 4
  %5 = alloca ptr, align 8
  store ptr %0, ptr %3, align 8, !tbaa !31
  store i32 %1, ptr %4, align 4, !tbaa !38
  call void @llvm.lifetime.start.p0(i64 8, ptr %5) #11
  %6 = load ptr, ptr %3, align 8, !tbaa !31
  %7 = load i32, ptr %4, align 4, !tbaa !38
  %8 = call ptr @get_filter(ptr noundef %6, i32 noundef %7)
  store ptr %8, ptr %5, align 8, !tbaa !45
  %9 = load ptr, ptr %5, align 8, !tbaa !45
  %10 = icmp eq ptr %9, null
  br i1 %10, label %11, label %12

11:                                               ; preds = %2
  br label %16

12:                                               ; preds = %2
  %13 = load ptr, ptr %5, align 8, !tbaa !45
  %14 = getelementptr inbounds nuw %struct.archive_read_filter, ptr %13, i32 0, i32 0
  %15 = load i64, ptr %14, align 8, !tbaa !82
  br label %16

16:                                               ; preds = %12, %11
  %17 = phi i64 [ -1, %11 ], [ %15, %12 ]
  call void @llvm.lifetime.end.p0(i64 8, ptr %5) #11
  ret i64 %17
}